target datalayout = "e-m:e-p270:32:32-p271:32:32-p272:64:64-i64:64-i128:128-f80:128-n8:16:32:64-S128"
target triple = "x86_64-pc-linux-gnu"

%"class.google::protobuf::internal::InternalMetadata" = type { i64 }
%"union.opencv_tensorflow::AttrValue::ValueUnion" = type { %"struct.google::protobuf::internal::ArenaStringPtr" }
%"struct.google::protobuf::internal::ArenaStringPtr" = type { %"class.google::protobuf::internal::TaggedPtr" }
%"class.google::protobuf::internal::TaggedPtr" = type { ptr }
%"class.google::protobuf::Message" = type { %"class.google::protobuf::MessageLite" }
%"class.google::protobuf::MessageLite" = type { ptr, %"class.google::protobuf::internal::InternalMetadata" }
%"struct.std::atomic" = type { %"struct.std::__atomic_base" }
%"struct.std::__atomic_base" = type { i32 }
%"class.google::protobuf::internal::CachedSize" = type { %"struct.std::atomic" }
%"struct.google::protobuf::internal::InternalMetadata::ContainerBase" = type { ptr }
%"class.opencv_tensorflow::AttrValue" = type { %"class.google::protobuf::Message", %"union.opencv_tensorflow::AttrValue::ValueUnion", %"class.google::protobuf::internal::CachedSize", [1 x i32] }

; Function Attrs: alwaysinline mustprogress nounwind uwtable
define linkonce_odr hidden noundef zeroext i1 @_ZNK6google8protobuf8internal16InternalMetadata23HasMessageOwnedArenaTagEv(ptr noundef nonnull align 8 dereferenceable(8) %0) #13 comdat align 2 {
  %2 = alloca ptr, align 8
  store ptr %0, ptr %2, align 8, !tbaa !53
  %3 = load ptr, ptr %2, align 8
  %4 = getelementptr inbounds nuw %"class.google::protobuf::internal::InternalMetadata", ptr %3, i32 0, i32 0
  %5 = load i64, ptr %4, align 8, !tbaa !221
  %6 = and i64 %5, 2
  %7 = icmp ne i64 %6, 0
  ret i1 %7
}

; Function Attrs: alwaysinline mustprogress nounwind uwtable
define linkonce_odr hidden noundef zeroext i1 @_ZNK6google8protobuf8internal16InternalMetadata19HasUnknownFieldsTagEv(ptr noundef nonnull align 8 dereferenceable(8) %0) #13 comdat align 2 {
  %2 = alloca ptr, align 8
  store ptr %0, ptr %2, align 8, !tbaa !53
  %3 = load ptr, ptr %2, align 8
  %4 = getelementptr inbounds nuw %"class.google::protobuf::internal::InternalMetadata", ptr %3, i32 0, i32 0
  %5 = load i64, ptr %4, align 8, !tbaa !221
  %6 = and i64 %5, 1
  %7 = icmp ne i64 %6, 0
  ret i1 %7
}

; Function Attrs: alwaysinline mustprogress uwtable
define linkonce_odr hidden noundef ptr @_ZNK6google8protobuf8internal16InternalMetadata12owning_arenaEv(ptr noundef nonnull align 8 dereferenceable(8) %0) #8 comdat align 2 {
  %2 = alloca ptr, align 8
  store ptr %0, ptr %2, align 8, !tbaa !53
  %3 = load ptr, ptr %2, align 8
  %4 = call noundef zeroext i1 @_ZNK6google8protobuf8internal16InternalMetadata23HasMessageOwnedArenaTagEv(ptr noundef nonnull align 8 dereferenceable(8) %3)
  br i1 %4, label %5, label %6

5:                                                ; preds = %1
  br label %8

6:                                                ; preds = %1
  %7 = call noundef ptr @_ZNK6google8protobuf8internal16InternalMetadata5arenaEv(ptr noundef nonnull align 8 dereferenceable(8) %3)
  br label %8

8:                                                ; preds = %6, %5
  %9 = phi ptr [ null, %5 ], [ %7, %6 ]
  ret ptr %9
}

; Function Attrs: mustprogress nounwind uwtable
define linkonce_odr hidden noundef ptr @_ZNK6google8protobuf8internal16InternalMetadata8PtrValueINS0_5ArenaEEEPT_v(ptr noundef nonnull align 8 dereferenceable(8) %0) #7 comdat align 2 {
  %2 = alloca ptr, align 8
  store ptr %0, ptr %2, align 8, !tbaa !53
  %3 = load ptr, ptr %2, align 8
  %4 = getelementptr inbounds nuw %"class.google::protobuf::internal::InternalMetadata", ptr %3, i32 0, i32 0
  %5 = load i64, ptr %4, align 8, !tbaa !221
  %6 = and i64 %5, -4
  %7 = inttoptr i64 %6 to ptr
  ret ptr %7
}

; Function Attrs: mustprogress nounwind uwtable
define linkonce_odr hidden noundef ptr @_ZNK6google8protobuf8internal16InternalMetadata8PtrValueINS2_13ContainerBaseEEEPT_v(ptr noundef nonnull align 8 dereferenceable(8) %0) #7 comdat align 2 {
  %2 = alloca ptr, align 8
  store ptr %0, ptr %2, align 8, !tbaa !53
  %3 = load ptr, ptr %2, align 8
  %4 = getelementptr inbounds nuw %"class.google::protobuf::internal::InternalMetadata", ptr %3, i32 0, i32 0
  %5 = load i64, ptr %4, align 8, !tbaa !221
  %6 = and i64 %5, -4
  %7 = inttoptr i64 %6 to ptr
  ret ptr %7
}

; Function Attrs: alwaysinline mustprogress uwtable
define linkonce_odr hidden noundef zeroext i1 @_ZNK6google8protobuf8internal16InternalMetadata19have_unknown_fieldsEv(ptr noundef nonnull align 8 dereferenceable(8) %0) #8 comdat align 2 {
  %2 = alloca ptr, align 8
  store ptr %0, ptr %2, align 8, !tbaa !53
  %3 = load ptr, ptr %2, align 8
  %4 = call noundef zeroext i1 @_ZNK6google8protobuf8internal16InternalMetadata19HasUnknownFieldsTagEv(ptr noundef nonnull align 8 dereferenceable(8) %3)
  ret i1 %4
}

; Function Attrs: mustprogress uwtable
define linkonce_odr hidden noundef ptr @_ZNK6google8protobuf11MessageLite14GetOwningArenaEv(ptr noundef nonnull align 8 dereferenceable(16) %0) #4 comdat align 2 {
  %2 = alloca ptr, align 8
  store ptr %0, ptr %2, align 8, !tbaa !51
  %3 = load ptr, ptr %2, align 8
  %4 = getelementptr inbounds nuw %"class.google::protobuf::MessageLite", ptr %3, i32 0, i32 1
  %5 = call noundef ptr @_ZNK6google8protobuf8internal16InternalMetadata12owning_arenaEv(ptr noundef nonnull align 8 dereferenceable(8) %4)
  ret ptr %5
}

; Function Attrs: alwaysinline mustprogress uwtable
define linkonce_odr hidden noundef ptr @_ZNK6google8protobuf8internal16InternalMetadata5arenaEv(ptr noundef nonnull align 8 dereferenceable(8) %0) #8 comdat align 2 {
  %2 = alloca ptr, align 8
  %3 = alloca ptr, align 8
  store ptr %0, ptr %3, align 8, !tbaa !53
  %4 = load ptr, ptr %3, align 8
  %5 = call noundef zeroext i1 @_ZNK6google8protobuf8internal16InternalMetadata19have_unknown_fieldsEv(ptr noundef nonnull align 8 dereferenceable(8) %4)
  %6 = zext i1 %5 to i64
  %7 = call i64 @llvm.expect.i64(i64 %6, i64 0)
  %8 = icmp ne i64 %7, 0
  br i1 %8, label %9, label %13

9:                                                ; preds = %1
  %10 = call noundef ptr @_ZNK6google8protobuf8internal16InternalMetadata8PtrValueINS2_13ContainerBaseEEEPT_v(ptr noundef nonnull align 8 dereferenceable(8) %4)
  %11 = getelementptr inbounds nuw %"struct.google::protobuf::internal::InternalMetadata::ContainerBase", ptr %10, i32 0, i32 0
  %12 = load ptr, ptr %11, align 8, !tbaa !227
  store ptr %12, ptr %2, align 8
  br label %15

13:                                               ; preds = %1
  %14 = call noundef ptr @_ZNK6google8protobuf8internal16InternalMetadata8PtrValueINS0_5ArenaEEEPT_v(ptr noundef nonnull align 8 dereferenceable(8) %4)
  store ptr %14, ptr %2, align 8
  br label %15

15:                                               ; preds = %13, %9
  %16 = load ptr, ptr %2, align 8
  ret ptr %16
}

; Function Attrs: inlinehint mustprogress nounwind uwtable
define linkonce_odr hidden void @_ZN17opencv_tensorflow9AttrValue12set_has_listEv(ptr noundef nonnull align 8 dereferenceable(32) %0) #6 comdat align 2 {
  %2 = alloca ptr, align 8
  store ptr %0, ptr %2, align 8, !tbaa !130
  %3 = load ptr, ptr %2, align 8
  %4 = getelementptr inbounds nuw %"class.opencv_tensorflow::AttrValue", ptr %3, i32 0, i32 3
  %5 = getelementptr inbounds [1 x i32], ptr %4, i64 0, i64 0
  store i32 1, ptr %5, align 4, !tbaa !58
  ret void
}

; Function Attrs: mustprogress uwtable
define linkonce_odr hidden noundef ptr @_ZN6google8protobuf8internal15GetOwnedMessageIN17opencv_tensorflow19AttrValue_ListValueEEEPT_PNS0_5ArenaES6_S8_(ptr noundef %0, ptr noundef %1, ptr noundef %2) #4 comdat {
  %4 = alloca ptr, align 8
  %5 = alloca ptr, align 8
  %6 = alloca ptr, align 8
  store ptr %0, ptr %4, align 8, !tbaa !12
  store ptr %1, ptr %5, align 8, !tbaa !3
  store ptr %2, ptr %6, align 8, !tbaa !12
  %7 = load ptr, ptr %4, align 8, !tbaa !12
  %8 = load ptr, ptr %5, align 8, !tbaa !3
  %9 = load ptr, ptr %6, align 8, !tbaa !12
  %10 = call noundef ptr @_ZN6google8protobuf8internal23GetOwnedMessageInternalEPNS0_5ArenaEPNS0_11MessageLiteES3_(ptr noundef %7, ptr noundef %8, ptr noundef %9)
  ret ptr %10
}

; Function Attrs: mustprogress uwtable
define linkonce_odr hidden noundef ptr @_ZN6google8protobuf5Arena14InternalHelperIN17opencv_tensorflow19AttrValue_ListValueEE14GetOwningArenaEPKS4_(ptr noundef %0) #4 comdat align 2 {
  %2 = alloca ptr, align 8
  store ptr %0, ptr %2, align 8, !tbaa !3
  %3 = load ptr, ptr %2, align 8, !tbaa !3
  %4 = call noundef ptr @_ZNK6google8protobuf11MessageLite14GetOwningArenaEv(ptr noundef nonnull align 8 dereferenceable(16) %3)
  ret ptr %4
}

; Function Attrs: mustprogress uwtable
define linkonce_odr hidden noundef ptr @_ZNK6google8protobuf11MessageLite21GetArenaForAllocationEv(ptr noundef nonnull align 8 dereferenceable(16) %0) #4 comdat align 2 {
  %2 = alloca ptr, align 8
  store ptr %0, ptr %2, align 8, !tbaa !51
  %3 = load ptr, ptr %2, align 8
  %4 = getelementptr inbounds nuw %"class.google::protobuf::MessageLite", ptr %3, i32 0, i32 1
  %5 = call noundef ptr @_ZNK6google8protobuf8internal16InternalMetadata5arenaEv(ptr noundef nonnull align 8 dereferenceable(8) %4)
  ret ptr %5
}

; Function Attrs: mustprogress uwtable
define hidden void @_ZN17opencv_tensorflow9AttrValue18set_allocated_listEPNS_19AttrValue_ListValueE(ptr noundef nonnull align 8 dereferenceable(32) %0, ptr noundef %1) #4 align 2 {
  %3 = alloca ptr, align 8
  %4 = alloca ptr, align 8
  %5 = alloca ptr, align 8
  %6 = alloca ptr, align 8
  store ptr %0, ptr %3, align 8, !tbaa !130
  store ptr %1, ptr %4, align 8, !tbaa !3
  %7 = load ptr, ptr %3, align 8
  call void @llvm.lifetime.start.p0(i64 8, ptr %5) #3
  %8 = call noundef ptr @_ZNK6google8protobuf11MessageLite21GetArenaForAllocationEv(ptr noundef nonnull align 8 dereferenceable(16) %7)
  store ptr %8, ptr %5, align 8, !tbaa !12
  call void @_ZN17opencv_tensorflow9AttrValue11clear_valueEv(ptr noundef nonnull align 8 dereferenceable(32) %7)
  %9 = load ptr, ptr %4, align 8, !tbaa !3
  %10 = icmp ne ptr %9, null
  br i1 %10, label %11, label %25

11:                                               ; preds = %2
  call void @llvm.lifetime.start.p0(i64 8, ptr %6) #3
  %12 = load ptr, ptr %4, align 8, !tbaa !3
  %13 = call noundef ptr @_ZN6google8protobuf5Arena14InternalHelperIN17opencv_tensorflow19AttrValue_ListValueEE14GetOwningArenaEPKS4_(ptr noundef %12)
  store ptr %13, ptr %6, align 8, !tbaa !12
  %14 = load ptr, ptr %5, align 8, !tbaa !12
  %15 = load ptr, ptr %6, align 8, !tbaa !12
  %16 = icmp ne ptr %14, %15
  br i1 %16, label %17, label %22

17:                                               ; preds = %11
  %18 = load ptr, ptr %5, align 8, !tbaa !12
  %19 = load ptr, ptr %4, align 8, !tbaa !3
  %20 = load ptr, ptr %6, align 8, !tbaa !12
  %21 = call noundef ptr @_ZN6google8protobuf8internal15GetOwnedMessageIN17opencv_tensorflow19AttrValue_ListValueEEEPT_PNS0_5ArenaES6_S8_(ptr noundef %18, ptr noundef %19, ptr noundef %20)
  store ptr %21, ptr %4, align 8, !tbaa !3
  br label %22

22:                                               ; preds = %17, %11
  call void @_ZN17opencv_tensorflow9AttrValue12set_has_listEv(ptr noundef nonnull align 8 dereferenceable(32) %7)
  %23 = load ptr, ptr %4, align 8, !tbaa !3
  %24 = getelementptr inbounds nuw %"class.opencv_tensorflow::AttrValue", ptr %7, i32 0, i32 1
  store ptr %23, ptr %24, align 8, !tbaa !83
  call void @llvm.lifetime.end.p0(i64 8, ptr %6) #3
  br label %25

25:                                               ; preds = %22, %2
  call void @llvm.lifetime.end.p0(i64 8, ptr %5) #3
  ret void
}